; Function Attrs: mustprogress nounwind uwtable
define hidden noundef i64 @_ZN15CgroupSubsystem30memory_and_swap_usage_in_bytesEv(ptr noundef nonnull align 8 dereferenceable(8) %0) local_unnamed_addr #0 align 2 {
  %2 = load i64, ptr @_ZN2os5Linux16_physical_memoryE, align 8
  %3 = tail call noundef i64 @_ZN2os5Linux9host_swapEv() #13
  %4 = load ptr, ptr %0, align 8
  %5 = getelementptr inbounds i8, ptr %4, i64 48
  %6 = load ptr, ptr %5, align 8
  %7 = tail call noundef ptr %6(ptr noundef nonnull align 8 dereferenceable(8) %0) #13
  %8 = load ptr, ptr %7, align 8
  %9 = load ptr, ptr %8, align 8
  %10 = getelementptr inbounds i8, ptr %9, i64 24
  %11 = load ptr, ptr %10, align 8
  %12 = tail call noundef i64 %11(ptr noundef nonnull align 8 dereferenceable(8) %8, i64 noundef %2, i64 noundef %3) #13
  ret i64 %12
}